target datalayout = "e-m:e-p270:32:32-p271:32:32-p272:64:64-i64:64-i128:128-f80:128-n8:16:32:64-S128"
target triple = "x86_64-pc-linux-gnu"

@.str.2 = private unnamed_addr constant [33 x i8] c"[GRADIENT on pivot] rotate shape\00", align 1
@.str.3 = private unnamed_addr constant [33 x i8] c"[GRADIENT creation] set rotation\00", align 1
@.str.4 = private unnamed_addr constant [28 x i8] c"[GRADIENT] change curvature\00", align 1
@.str.5 = private unnamed_addr constant [30 x i8] c"[GRADIENT] change compression\00", align 1
@.str.6 = private unnamed_addr constant [26 x i8] c"[GRADIENT] change opacity\00", align 1

; Function Attrs: nounwind uwtable
define internal ptr @_gradient_setup_mouse_actions(ptr noundef %0) #0 {
  %2 = alloca ptr, align 8
  %3 = alloca ptr, align 8
  store ptr %0, ptr %2, align 8, !tbaa !10
  call void @llvm.lifetime.start.p0(i64 8, ptr %3) #11
  store ptr null, ptr %3, align 8, !tbaa !13
  %4 = load ptr, ptr %3, align 8, !tbaa !13
  %5 = call ptr @dcgettext(ptr noundef null, ptr noundef @.str.2, i32 noundef 5) #11
  %6 = call ptr @dt_mouse_action_create_simple(ptr noundef %4, i32 noundef 7, i32 noundef 0, ptr noundef %5)
  store ptr %6, ptr %3, align 8, !tbaa !13
  %7 = load ptr, ptr %3, align 8, !tbaa !13
  %8 = call ptr @dcgettext(ptr noundef null, ptr noundef @.str.3, i32 noundef 5) #11
  %9 = call ptr @dt_mouse_action_create_simple(ptr noundef %7, i32 noundef 7, i32 noundef 0, ptr noundef %8)
  store ptr %9, ptr %3, align 8, !tbaa !13
  %10 = load ptr, ptr %3, align 8, !tbaa !13
  %11 = call ptr @dcgettext(ptr noundef null, ptr noundef @.str.4, i32 noundef 5) #11
  %12 = call ptr @dt_mouse_action_create_simple(ptr noundef %10, i32 noundef 3, i32 noundef 0, ptr noundef %11)
  store ptr %12, ptr %3, align 8, !tbaa !13
  %13 = load ptr, ptr %3, align 8, !tbaa !13
  %14 = call ptr @dcgettext(ptr noundef null, ptr noundef @.str.5, i32 noundef 5) #11
  %15 = call ptr @dt_mouse_action_create_simple(ptr noundef %13, i32 noundef 3, i32 noundef 1, ptr noundef %14)
  store ptr %15, ptr %3, align 8, !tbaa !13
  %16 = load ptr, ptr %3, align 8, !tbaa !13
  %17 = call ptr @dcgettext(ptr noundef null, ptr noundef @.str.6, i32 noundef 5) #11
  %18 = call ptr @dt_mouse_action_create_simple(ptr noundef %16, i32 noundef 3, i32 noundef 4, ptr noundef %17)
  store ptr %18, ptr %3, align 8, !tbaa !13
  %19 = load ptr, ptr %3, align 8, !tbaa !13
  call void @llvm.lifetime.end.p0(i64 8, ptr %3) #11
  ret ptr %19
}