; Function Attrs: nounwind uwtable
define internal ptr @_gradient_setup_mouse_actions(ptr readnone captures(none) %0) #0 {
  %2 = tail call ptr @dcgettext(ptr noundef null, ptr noundef nonnull @.str.2, i32 noundef 5) #13
  %3 = tail call ptr @dt_mouse_action_create_simple(ptr noundef null, i32 noundef 7, i32 noundef 0, ptr noundef %2) #13
  %4 = tail call ptr @dcgettext(ptr noundef null, ptr noundef nonnull @.str.3, i32 noundef 5) #13
  %5 = tail call ptr @dt_mouse_action_create_simple(ptr noundef %3, i32 noundef 7, i32 noundef 0, ptr noundef %4) #13
  %6 = tail call ptr @dcgettext(ptr noundef null, ptr noundef nonnull @.str.4, i32 noundef 5) #13
  %7 = tail call ptr @dt_mouse_action_create_simple(ptr noundef %5, i32 noundef 3, i32 noundef 0, ptr noundef %6) #13
  %8 = tail call ptr @dcgettext(ptr noundef null, ptr noundef nonnull @.str.5, i32 noundef 5) #13
  %9 = tail call ptr @dt_mouse_action_create_simple(ptr noundef %7, i32 noundef 3, i32 noundef 1, ptr noundef %8) #13
  %10 = tail call ptr @dcgettext(ptr noundef null, ptr noundef nonnull @.str.6, i32 noundef 5) #13
  %11 = tail call ptr @dt_mouse_action_create_simple(ptr noundef %9, i32 noundef 3, i32 noundef 4, ptr noundef %10) #13
  ret ptr %11
}